target datalayout = "e-m:e-p270:32:32-p271:32:32-p272:64:64-i64:64-i128:128-f80:128-n8:16:32:64-S128"
target triple = "x86_64-pc-linux-gnu"

%"class.nanobind::builtin_exception" = type <{ %"class.std::runtime_error", i32, [4 x i8] }>
%"class.std::runtime_error" = type { %"class.std::exception", %"struct.std::__cow_string" }
%"class.std::exception" = type { ptr }
%"struct.std::__cow_string" = type { %union.anon.15 }
%union.anon.15 = type { ptr }

@PyExc_TypeError = external global ptr, align 8
@PyExc_RuntimeError = external global ptr, align 8
@PyExc_StopIteration = external global ptr, align 8
@PyExc_IndexError = external global ptr, align 8
@PyExc_KeyError = external global ptr, align 8
@PyExc_ValueError = external global ptr, align 8
@PyExc_BufferError = external global ptr, align 8
@PyExc_ImportError = external global ptr, align 8
@PyExc_AttributeError = external global ptr, align 8

; Function Attrs: mustprogress nounwind uwtable
define linkonce_odr noundef i32 @_ZNK8nanobind17builtin_exception4typeEv(ptr noundef nonnull align 8 dereferenceable(20) %0) #8 comdat align 2 {
  %2 = alloca ptr, align 8
  store ptr %0, ptr %2, align 8
  %3 = load ptr, ptr %2, align 8
  %4 = getelementptr inbounds nuw %"class.nanobind::builtin_exception", ptr %3, i32 0, i32 1
  %5 = load i32, ptr %4, align 8
  ret i32 %5
}

; Function Attrs: mustprogress uwtable
define internal noundef zeroext i1 @_ZN8nanobind6detailL28set_builtin_exception_statusERNS_17builtin_exceptionE(ptr noundef nonnull align 8 dereferenceable(20) %0) #0 {
  %2 = alloca i1, align 1
  %3 = alloca ptr, align 8
  %4 = alloca ptr, align 8
  %5 = alloca i32, align 4
  store ptr %0, ptr %3, align 8
  call void @llvm.lifetime.start.p0(i64 8, ptr %4) #22
  %6 = load ptr, ptr %3, align 8
  %7 = call noundef i32 @_ZNK8nanobind17builtin_exception4typeEv(ptr noundef nonnull align 8 dereferenceable(20) %6)
  switch i32 %7, label %27 [
    i32 0, label %8
    i32 1, label %10
    i32 2, label %12
    i32 3, label %14
    i32 4, label %16
    i32 5, label %18
    i32 6, label %20
    i32 7, label %22
    i32 8, label %24
    i32 9, label %26
  ]

8:                                                ; preds = %1
  %9 = load ptr, ptr @PyExc_RuntimeError, align 8
  store ptr %9, ptr %4, align 8
  br label %28

10:                                               ; preds = %1
  %11 = load ptr, ptr @PyExc_StopIteration, align 8
  store ptr %11, ptr %4, align 8
  br label %28

12:                                               ; preds = %1
  %13 = load ptr, ptr @PyExc_IndexError, align 8
  store ptr %13, ptr %4, align 8
  br label %28

14:                                               ; preds = %1
  %15 = load ptr, ptr @PyExc_KeyError, align 8
  store ptr %15, ptr %4, align 8
  br label %28

16:                                               ; preds = %1
  %17 = load ptr, ptr @PyExc_ValueError, align 8
  store ptr %17, ptr %4, align 8
  br label %28

18:                                               ; preds = %1
  %19 = load ptr, ptr @PyExc_TypeError, align 8
  store ptr %19, ptr %4, align 8
  br label %28

20:                                               ; preds = %1
  %21 = load ptr, ptr @PyExc_BufferError, align 8
  store ptr %21, ptr %4, align 8
  br label %28

22:                                               ; preds = %1
  %23 = load ptr, ptr @PyExc_ImportError, align 8
  store ptr %23, ptr %4, align 8
  br label %28

24:                                               ; preds = %1
  %25 = load ptr, ptr @PyExc_AttributeError, align 8
  store ptr %25, ptr %4, align 8
  br label %28

26:                                               ; preds = %1
  store i1 false, ptr %2, align 1
  store i32 1, ptr %5, align 4
  br label %35

27:                                               ; preds = %1
  call void @_ZN8nanobind6detail16fail_unspecifiedEv() #24
  unreachable

28:                                               ; preds = %24, %22, %20, %18, %16, %14, %12, %10, %8
  %29 = load ptr, ptr %4, align 8
  %30 = load ptr, ptr %3, align 8
  %31 = load ptr, ptr %30, align 8
  %32 = getelementptr inbounds ptr, ptr %31, i64 2
  %33 = load ptr, ptr %32, align 8
  %34 = call noundef ptr %33(ptr noundef nonnull align 8 dereferenceable(16) %30) #22
  call void @PyErr_SetString(ptr noundef %29, ptr noundef %34)
  store i1 true, ptr %2, align 1
  store i32 1, ptr %5, align 4
  br label %35

35:                                               ; preds = %28, %26
  call void @llvm.lifetime.end.p0(i64 8, ptr %4) #22
  %36 = load i1, ptr %2, align 1
  ret i1 %36
}