; Function Attrs: mustprogress uwtable
define internal fastcc noundef zeroext i1 @_ZN8nanobind6detailL28set_builtin_exception_statusERNS_17builtin_exceptionE(ptr noundef nonnull align 8 dereferenceable(20) %0) unnamed_addr #0 {
  %2 = getelementptr inbounds nuw i8, ptr %0, i64 16
  %3 = load i32, ptr %2, align 8
  switch i32 %3, label %12 [
    i32 0, label %13
    i32 1, label %4
    i32 2, label %5
    i32 3, label %6
    i32 4, label %7
    i32 5, label %8
    i32 6, label %9
    i32 7, label %10
    i32 8, label %11
    i32 9, label %18
  ]

4:                                                ; preds = %1
  br label %13

5:                                                ; preds = %1
  br label %13

6:                                                ; preds = %1
  br label %13

7:                                                ; preds = %1
  br label %13

8:                                                ; preds = %1
  br label %13

9:                                                ; preds = %1
  br label %13

10:                                               ; preds = %1
  br label %13

11:                                               ; preds = %1
  br label %13

12:                                               ; preds = %1
  tail call void @_ZN8nanobind6detail16fail_unspecifiedEv() #26
  unreachable

13:                                               ; preds = %1, %11, %10, %9, %8, %7, %6, %5, %4
  %.0.in = phi ptr [ @PyExc_AttributeError, %11 ], [ @PyExc_ImportError, %10 ], [ @PyExc_BufferError, %9 ], [ @PyExc_TypeError, %8 ], [ @PyExc_ValueError, %7 ], [ @PyExc_KeyError, %6 ], [ @PyExc_IndexError, %5 ], [ @PyExc_StopIteration, %4 ], [ @PyExc_RuntimeError, %1 ]
  %.0 = load ptr, ptr %.0.in, align 8
  %14 = load ptr, ptr %0, align 8
  %15 = getelementptr inbounds nuw i8, ptr %14, i64 16
  %16 = load ptr, ptr %15, align 8
  %17 = tail call noundef ptr %16(ptr noundef nonnull align 8 dereferenceable(16) %0) #25
  tail call void @PyErr_SetString(ptr noundef %.0, ptr noundef %17)
  br label %18

18:                                               ; preds = %1, %13
  %.04 = phi i1 [ true, %13 ], [ false, %1 ]
  ret i1 %.04
}